target datalayout = "e-m:e-p270:32:32-p271:32:32-p272:64:64-i64:64-i128:128-f80:128-n8:16:32:64-S128"
target triple = "x86_64-pc-linux-gnu"

%struct._zval_struct = type { %union._zend_value, %union.anon, %union.anon.2 }
%union._zend_value = type { i64 }
%union.anon = type { i32 }
%union.anon.2 = type { i32 }
%struct._zend_refcounted_h = type { i32, %union.anon.3 }
%union.anon.3 = type { i32 }
%struct._zend_string = type { %struct._zend_refcounted_h, i64, i64, [1 x i8] }

@xmlFree = external global ptr, align 8
@.str.3 = private unnamed_addr constant [3 x i8] c"id\00", align 1
@zend_empty_string = external global ptr, align 8

; Function Attrs: nounwind uwtable
define internal i32 @dom_element_reflected_attribute_read(ptr noundef %0, ptr noundef %1, ptr noundef %2) #0 {
  %4 = alloca ptr, align 8
  %5 = alloca i32, align 4
  %6 = alloca i64, align 8
  %7 = alloca i8, align 1
  %8 = alloca ptr, align 8
  %9 = alloca ptr, align 8
  %10 = alloca i64, align 8
  %11 = alloca i8, align 1
  %12 = alloca ptr, align 8
  %13 = alloca i32, align 4
  %14 = alloca ptr, align 8
  %15 = alloca ptr, align 8
  %16 = alloca ptr, align 8
  %17 = alloca ptr, align 8
  %18 = alloca ptr, align 8
  %19 = alloca ptr, align 8
  %20 = alloca ptr, align 8
  %21 = alloca ptr, align 8
  %22 = alloca ptr, align 8
  %23 = alloca ptr, align 8
  store ptr %0, ptr %14, align 8
  store ptr %1, ptr %15, align 8
  store ptr %2, ptr %16, align 8
  %24 = load ptr, ptr %14, align 8
  %25 = call ptr @dom_object_get_node(ptr noundef %24)
  store ptr %25, ptr %17, align 8
  %26 = load ptr, ptr %17, align 8
  %27 = icmp eq ptr %26, null
  br i1 %27, label %28, label %29

28:                                               ; preds = %3
  call void @php_dom_throw_error(i32 noundef 11, i32 noundef 1)
  store i32 -1, ptr %13, align 4
  br label %510

29:                                               ; preds = %3
  %30 = load ptr, ptr %17, align 8
  %31 = load ptr, ptr %16, align 8
  %32 = call ptr @xmlGetNoNsProp(ptr noundef %30, ptr noundef %31)
  store ptr %32, ptr %18, align 8
  %33 = load ptr, ptr %18, align 8
  %34 = icmp eq ptr %33, null
  br i1 %34, label %35, label %47

35:                                               ; preds = %29
  br label %36

36:                                               ; preds = %35
  br label %37

37:                                               ; preds = %36
  %38 = load ptr, ptr %15, align 8
  store ptr %38, ptr %19, align 8
  %39 = load ptr, ptr @zend_empty_string, align 8
  store ptr %39, ptr %20, align 8
  %40 = load ptr, ptr %20, align 8
  %41 = load ptr, ptr %19, align 8
  %42 = getelementptr inbounds %struct._zval_struct, ptr %41, i32 0, i32 0
  store ptr %40, ptr %42, align 8
  %43 = load ptr, ptr %19, align 8
  %44 = getelementptr inbounds %struct._zval_struct, ptr %43, i32 0, i32 1
  store i32 6, ptr %44, align 8
  br label %45

45:                                               ; preds = %37
  br label %46

46:                                               ; preds = %45
  store i32 0, ptr %13, align 4
  br label %510

47:                                               ; preds = %29
  br label %48

48:                                               ; preds = %47
  %49 = load ptr, ptr %18, align 8
  store ptr %49, ptr %21, align 8
  br label %50

50:                                               ; preds = %48
  br label %51

51:                                               ; preds = %50
  %52 = load ptr, ptr %15, align 8
  store ptr %52, ptr %22, align 8
  %53 = load ptr, ptr %21, align 8
  %54 = load ptr, ptr %21, align 8
  %55 = call i64 @strlen(ptr noundef %54) #8
  store ptr %53, ptr %9, align 8
  store i64 %55, ptr %10, align 8
  store i8 0, ptr %11, align 1
  %56 = load i64, ptr %10, align 8
  %57 = load i8, ptr %11, align 1
  %58 = trunc i8 %57 to i1
  store i64 %56, ptr %6, align 8
  %59 = zext i1 %58 to i8
  store i8 %59, ptr %7, align 1
  %60 = load i8, ptr %7, align 1
  %61 = trunc i8 %60 to i1
  br i1 %61, label %62, label %70

62:                                               ; preds = %51
  %63 = load i64, ptr %6, align 8
  %64 = add i64 24, %63
  %65 = add i64 %64, 1
  %66 = add i64 %65, 8
  %67 = sub i64 %66, 1
  %68 = and i64 %67, -8
  %69 = call noalias ptr @__zend_malloc(i64 noundef %68) #9
  br label %474

70:                                               ; preds = %51
  %71 = load i64, ptr %6, align 8
  %72 = add i64 24, %71
  %73 = add i64 %72, 1
  %74 = add i64 %73, 8
  %75 = sub i64 %74, 1
  %76 = and i64 %75, -8
  %77 = call i1 @llvm.is.constant.i64(i64 %76)
  br i1 %77, label %78, label %464

78:                                               ; preds = %70
  %79 = load i64, ptr %6, align 8
  %80 = add i64 24, %79
  %81 = add i64 %80, 1
  %82 = add i64 %81, 8
  %83 = sub i64 %82, 1
  %84 = and i64 %83, -8
  %85 = icmp ule i64 %84, 8
  br i1 %85, label %86, label %88

86:                                               ; preds = %78
  %87 = call noalias ptr @_emalloc_8() #10
  br label %462

88:                                               ; preds = %78
  %89 = load i64, ptr %6, align 8
  %90 = add i64 24, %89
  %91 = add i64 %90, 1
  %92 = add i64 %91, 8
  %93 = sub i64 %92, 1
  %94 = and i64 %93, -8
  %95 = icmp ule i64 %94, 16
  br i1 %95, label %96, label %98

96:                                               ; preds = %88
  %97 = call noalias ptr @_emalloc_16() #10
  br label %460

98:                                               ; preds = %88
  %99 = load i64, ptr %6, align 8
  %100 = add i64 24, %99
  %101 = add i64 %100, 1
  %102 = add i64 %101, 8
  %103 = sub i64 %102, 1
  %104 = and i64 %103, -8
  %105 = icmp ule i64 %104, 24
  br i1 %105, label %106, label %108

106:                                              ; preds = %98
  %107 = call noalias ptr @_emalloc_24() #10
  br label %458

108:                                              ; preds = %98
  %109 = load i64, ptr %6, align 8
  %110 = add i64 24, %109
  %111 = add i64 %110, 1
  %112 = add i64 %111, 8
  %113 = sub i64 %112, 1
  %114 = and i64 %113, -8
  %115 = icmp ule i64 %114, 32
  br i1 %115, label %116, label %118

116:                                              ; preds = %108
  %117 = call noalias ptr @_emalloc_32() #10
  br label %456

118:                                              ; preds = %108
  %119 = load i64, ptr %6, align 8
  %120 = add i64 24, %119
  %121 = add i64 %120, 1
  %122 = add i64 %121, 8
  %123 = sub i64 %122, 1
  %124 = and i64 %123, -8
  %125 = icmp ule i64 %124, 40
  br i1 %125, label %126, label %128

126:                                              ; preds = %118
  %127 = call noalias ptr @_emalloc_40() #10
  br label %454

128:                                              ; preds = %118
  %129 = load i64, ptr %6, align 8
  %130 = add i64 24, %129
  %131 = add i64 %130, 1
  %132 = add i64 %131, 8
  %133 = sub i64 %132, 1
  %134 = and i64 %133, -8
  %135 = icmp ule i64 %134, 48
  br i1 %135, label %136, label %138

136:                                              ; preds = %128
  %137 = call noalias ptr @_emalloc_48() #10
  br label %452

138:                                              ; preds = %128
  %139 = load i64, ptr %6, align 8
  %140 = add i64 24, %139
  %141 = add i64 %140, 1
  %142 = add i64 %141, 8
  %143 = sub i64 %142, 1
  %144 = and i64 %143, -8
  %145 = icmp ule i64 %144, 56
  br i1 %145, label %146, label %148

146:                                              ; preds = %138
  %147 = call noalias ptr @_emalloc_56() #10
  br label %450

148:                                              ; preds = %138
  %149 = load i64, ptr %6, align 8
  %150 = add i64 24, %149
  %151 = add i64 %150, 1
  %152 = add i64 %151, 8
  %153 = sub i64 %152, 1
  %154 = and i64 %153, -8
  %155 = icmp ule i64 %154, 64
  br i1 %155, label %156, label %158

156:                                              ; preds = %148
  %157 = call noalias ptr @_emalloc_64() #10
  br label %448

158:                                              ; preds = %148
  %159 = load i64, ptr %6, align 8
  %160 = add i64 24, %159
  %161 = add i64 %160, 1
  %162 = add i64 %161, 8
  %163 = sub i64 %162, 1
  %164 = and i64 %163, -8
  %165 = icmp ule i64 %164, 80
  br i1 %165, label %166, label %168

166:                                              ; preds = %158
  %167 = call noalias ptr @_emalloc_80() #10
  br label %446

168:                                              ; preds = %158
  %169 = load i64, ptr %6, align 8
  %170 = add i64 24, %169
  %171 = add i64 %170, 1
  %172 = add i64 %171, 8
  %173 = sub i64 %172, 1
  %174 = and i64 %173, -8
  %175 = icmp ule i64 %174, 96
  br i1 %175, label %176, label %178

176:                                              ; preds = %168
  %177 = call noalias ptr @_emalloc_96() #10
  br label %444

178:                                              ; preds = %168
  %179 = load i64, ptr %6, align 8
  %180 = add i64 24, %179
  %181 = add i64 %180, 1
  %182 = add i64 %181, 8
  %183 = sub i64 %182, 1
  %184 = and i64 %183, -8
  %185 = icmp ule i64 %184, 112
  br i1 %185, label %186, label %188

186:                                              ; preds = %178
  %187 = call noalias ptr @_emalloc_112() #10
  br label %442

188:                                              ; preds = %178
  %189 = load i64, ptr %6, align 8
  %190 = add i64 24, %189
  %191 = add i64 %190, 1
  %192 = add i64 %191, 8
  %193 = sub i64 %192, 1
  %194 = and i64 %193, -8
  %195 = icmp ule i64 %194, 128
  br i1 %195, label %196, label %198

196:                                              ; preds = %188
  %197 = call noalias ptr @_emalloc_128() #10
  br label %440

198:                                              ; preds = %188
  %199 = load i64, ptr %6, align 8
  %200 = add i64 24, %199
  %201 = add i64 %200, 1
  %202 = add i64 %201, 8
  %203 = sub i64 %202, 1
  %204 = and i64 %203, -8
  %205 = icmp ule i64 %204, 160
  br i1 %205, label %206, label %208

206:                                              ; preds = %198
  %207 = call noalias ptr @_emalloc_160() #10
  br label %438

208:                                              ; preds = %198
  %209 = load i64, ptr %6, align 8
  %210 = add i64 24, %209
  %211 = add i64 %210, 1
  %212 = add i64 %211, 8
  %213 = sub i64 %212, 1
  %214 = and i64 %213, -8
  %215 = icmp ule i64 %214, 192
  br i1 %215, label %216, label %218

216:                                              ; preds = %208
  %217 = call noalias ptr @_emalloc_192() #10
  br label %436

218:                                              ; preds = %208
  %219 = load i64, ptr %6, align 8
  %220 = add i64 24, %219
  %221 = add i64 %220, 1
  %222 = add i64 %221, 8
  %223 = sub i64 %222, 1
  %224 = and i64 %223, -8
  %225 = icmp ule i64 %224, 224
  br i1 %225, label %226, label %228

226:                                              ; preds = %218
  %227 = call noalias ptr @_emalloc_224() #10
  br label %434

228:                                              ; preds = %218
  %229 = load i64, ptr %6, align 8
  %230 = add i64 24, %229
  %231 = add i64 %230, 1
  %232 = add i64 %231, 8
  %233 = sub i64 %232, 1
  %234 = and i64 %233, -8
  %235 = icmp ule i64 %234, 256
  br i1 %235, label %236, label %238

236:                                              ; preds = %228
  %237 = call noalias ptr @_emalloc_256() #10
  br label %432

238:                                              ; preds = %228
  %239 = load i64, ptr %6, align 8
  %240 = add i64 24, %239
  %241 = add i64 %240, 1
  %242 = add i64 %241, 8
  %243 = sub i64 %242, 1
  %244 = and i64 %243, -8
  %245 = icmp ule i64 %244, 320
  br i1 %245, label %246, label %248

246:                                              ; preds = %238
  %247 = call noalias ptr @_emalloc_320() #10
  br label %430

248:                                              ; preds = %238
  %249 = load i64, ptr %6, align 8
  %250 = add i64 24, %249
  %251 = add i64 %250, 1
  %252 = add i64 %251, 8
  %253 = sub i64 %252, 1
  %254 = and i64 %253, -8
  %255 = icmp ule i64 %254, 384
  br i1 %255, label %256, label %258

256:                                              ; preds = %248
  %257 = call noalias ptr @_emalloc_384() #10
  br label %428

258:                                              ; preds = %248
  %259 = load i64, ptr %6, align 8
  %260 = add i64 24, %259
  %261 = add i64 %260, 1
  %262 = add i64 %261, 8
  %263 = sub i64 %262, 1
  %264 = and i64 %263, -8
  %265 = icmp ule i64 %264, 448
  br i1 %265, label %266, label %268

266:                                              ; preds = %258
  %267 = call noalias ptr @_emalloc_448() #10
  br label %426

268:                                              ; preds = %258
  %269 = load i64, ptr %6, align 8
  %270 = add i64 24, %269
  %271 = add i64 %270, 1
  %272 = add i64 %271, 8
  %273 = sub i64 %272, 1
  %274 = and i64 %273, -8
  %275 = icmp ule i64 %274, 512
  br i1 %275, label %276, label %278

276:                                              ; preds = %268
  %277 = call noalias ptr @_emalloc_512() #10
  br label %424

278:                                              ; preds = %268
  %279 = load i64, ptr %6, align 8
  %280 = add i64 24, %279
  %281 = add i64 %280, 1
  %282 = add i64 %281, 8
  %283 = sub i64 %282, 1
  %284 = and i64 %283, -8
  %285 = icmp ule i64 %284, 640
  br i1 %285, label %286, label %288

286:                                              ; preds = %278
  %287 = call noalias ptr @_emalloc_640() #10
  br label %422

288:                                              ; preds = %278
  %289 = load i64, ptr %6, align 8
  %290 = add i64 24, %289
  %291 = add i64 %290, 1
  %292 = add i64 %291, 8
  %293 = sub i64 %292, 1
  %294 = and i64 %293, -8
  %295 = icmp ule i64 %294, 768
  br i1 %295, label %296, label %298

296:                                              ; preds = %288
  %297 = call noalias ptr @_emalloc_768() #10
  br label %420

298:                                              ; preds = %288
  %299 = load i64, ptr %6, align 8
  %300 = add i64 24, %299
  %301 = add i64 %300, 1
  %302 = add i64 %301, 8
  %303 = sub i64 %302, 1
  %304 = and i64 %303, -8
  %305 = icmp ule i64 %304, 896
  br i1 %305, label %306, label %308

306:                                              ; preds = %298
  %307 = call noalias ptr @_emalloc_896() #10
  br label %418

308:                                              ; preds = %298
  %309 = load i64, ptr %6, align 8
  %310 = add i64 24, %309
  %311 = add i64 %310, 1
  %312 = add i64 %311, 8
  %313 = sub i64 %312, 1
  %314 = and i64 %313, -8
  %315 = icmp ule i64 %314, 1024
  br i1 %315, label %316, label %318

316:                                              ; preds = %308
  %317 = call noalias ptr @_emalloc_1024() #10
  br label %416

318:                                              ; preds = %308
  %319 = load i64, ptr %6, align 8
  %320 = add i64 24, %319
  %321 = add i64 %320, 1
  %322 = add i64 %321, 8
  %323 = sub i64 %322, 1
  %324 = and i64 %323, -8
  %325 = icmp ule i64 %324, 1280
  br i1 %325, label %326, label %328

326:                                              ; preds = %318
  %327 = call noalias ptr @_emalloc_1280() #10
  br label %414

328:                                              ; preds = %318
  %329 = load i64, ptr %6, align 8
  %330 = add i64 24, %329
  %331 = add i64 %330, 1
  %332 = add i64 %331, 8
  %333 = sub i64 %332, 1
  %334 = and i64 %333, -8
  %335 = icmp ule i64 %334, 1536
  br i1 %335, label %336, label %338

336:                                              ; preds = %328
  %337 = call noalias ptr @_emalloc_1536() #10
  br label %412

338:                                              ; preds = %328
  %339 = load i64, ptr %6, align 8
  %340 = add i64 24, %339
  %341 = add i64 %340, 1
  %342 = add i64 %341, 8
  %343 = sub i64 %342, 1
  %344 = and i64 %343, -8
  %345 = icmp ule i64 %344, 1792
  br i1 %345, label %346, label %348

346:                                              ; preds = %338
  %347 = call noalias ptr @_emalloc_1792() #10
  br label %410

348:                                              ; preds = %338
  %349 = load i64, ptr %6, align 8
  %350 = add i64 24, %349
  %351 = add i64 %350, 1
  %352 = add i64 %351, 8
  %353 = sub i64 %352, 1
  %354 = and i64 %353, -8
  %355 = icmp ule i64 %354, 2048
  br i1 %355, label %356, label %358

356:                                              ; preds = %348
  %357 = call noalias ptr @_emalloc_2048() #10
  br label %408

358:                                              ; preds = %348
  %359 = load i64, ptr %6, align 8
  %360 = add i64 24, %359
  %361 = add i64 %360, 1
  %362 = add i64 %361, 8
  %363 = sub i64 %362, 1
  %364 = and i64 %363, -8
  %365 = icmp ule i64 %364, 2560
  br i1 %365, label %366, label %368

366:                                              ; preds = %358
  %367 = call noalias ptr @_emalloc_2560() #10
  br label %406

368:                                              ; preds = %358
  %369 = load i64, ptr %6, align 8
  %370 = add i64 24, %369
  %371 = add i64 %370, 1
  %372 = add i64 %371, 8
  %373 = sub i64 %372, 1
  %374 = and i64 %373, -8
  %375 = icmp ule i64 %374, 3072
  br i1 %375, label %376, label %378

376:                                              ; preds = %368
  %377 = call noalias ptr @_emalloc_3072() #10
  br label %404

378:                                              ; preds = %368
  %379 = load i64, ptr %6, align 8
  %380 = add i64 24, %379
  %381 = add i64 %380, 1
  %382 = add i64 %381, 8
  %383 = sub i64 %382, 1
  %384 = and i64 %383, -8
  %385 = icmp ule i64 %384, 2093056
  br i1 %385, label %386, label %394

386:                                              ; preds = %378
  %387 = load i64, ptr %6, align 8
  %388 = add i64 24, %387
  %389 = add i64 %388, 1
  %390 = add i64 %389, 8
  %391 = sub i64 %390, 1
  %392 = and i64 %391, -8
  %393 = call noalias ptr @_emalloc_large(i64 noundef %392) #9
  br label %402

394:                                              ; preds = %378
  %395 = load i64, ptr %6, align 8
  %396 = add i64 24, %395
  %397 = add i64 %396, 1
  %398 = add i64 %397, 8
  %399 = sub i64 %398, 1
  %400 = and i64 %399, -8
  %401 = call noalias ptr @_emalloc_huge(i64 noundef %400) #9
  br label %402

402:                                              ; preds = %394, %386
  %403 = phi ptr [ %393, %386 ], [ %401, %394 ]
  br label %404

404:                                              ; preds = %402, %376
  %405 = phi ptr [ %377, %376 ], [ %403, %402 ]
  br label %406

406:                                              ; preds = %404, %366
  %407 = phi ptr [ %367, %366 ], [ %405, %404 ]
  br label %408

408:                                              ; preds = %406, %356
  %409 = phi ptr [ %357, %356 ], [ %407, %406 ]
  br label %410

410:                                              ; preds = %408, %346
  %411 = phi ptr [ %347, %346 ], [ %409, %408 ]
  br label %412

412:                                              ; preds = %410, %336
  %413 = phi ptr [ %337, %336 ], [ %411, %410 ]
  br label %414

414:                                              ; preds = %412, %326
  %415 = phi ptr [ %327, %326 ], [ %413, %412 ]
  br label %416

416:                                              ; preds = %414, %316
  %417 = phi ptr [ %317, %316 ], [ %415, %414 ]
  br label %418

418:                                              ; preds = %416, %306
  %419 = phi ptr [ %307, %306 ], [ %417, %416 ]
  br label %420

420:                                              ; preds = %418, %296
  %421 = phi ptr [ %297, %296 ], [ %419, %418 ]
  br label %422

422:                                              ; preds = %420, %286
  %423 = phi ptr [ %287, %286 ], [ %421, %420 ]
  br label %424

424:                                              ; preds = %422, %276
  %425 = phi ptr [ %277, %276 ], [ %423, %422 ]
  br label %426

426:                                              ; preds = %424, %266
  %427 = phi ptr [ %267, %266 ], [ %425, %424 ]
  br label %428

428:                                              ; preds = %426, %256
  %429 = phi ptr [ %257, %256 ], [ %427, %426 ]
  br label %430

430:                                              ; preds = %428, %246
  %431 = phi ptr [ %247, %246 ], [ %429, %428 ]
  br label %432

432:                                              ; preds = %430, %236
  %433 = phi ptr [ %237, %236 ], [ %431, %430 ]
  br label %434

434:                                              ; preds = %432, %226
  %435 = phi ptr [ %227, %226 ], [ %433, %432 ]
  br label %436

436:                                              ; preds = %434, %216
  %437 = phi ptr [ %217, %216 ], [ %435, %434 ]
  br label %438

438:                                              ; preds = %436, %206
  %439 = phi ptr [ %207, %206 ], [ %437, %436 ]
  br label %440

440:                                              ; preds = %438, %196
  %441 = phi ptr [ %197, %196 ], [ %439, %438 ]
  br label %442

442:                                              ; preds = %440, %186
  %443 = phi ptr [ %187, %186 ], [ %441, %440 ]
  br label %444

444:                                              ; preds = %442, %176
  %445 = phi ptr [ %177, %176 ], [ %443, %442 ]
  br label %446

446:                                              ; preds = %444, %166
  %447 = phi ptr [ %167, %166 ], [ %445, %444 ]
  br label %448

448:                                              ; preds = %446, %156
  %449 = phi ptr [ %157, %156 ], [ %447, %446 ]
  br label %450

450:                                              ; preds = %448, %146
  %451 = phi ptr [ %147, %146 ], [ %449, %448 ]
  br label %452

452:                                              ; preds = %450, %136
  %453 = phi ptr [ %137, %136 ], [ %451, %450 ]
  br label %454

454:                                              ; preds = %452, %126
  %455 = phi ptr [ %127, %126 ], [ %453, %452 ]
  br label %456

456:                                              ; preds = %454, %116
  %457 = phi ptr [ %117, %116 ], [ %455, %454 ]
  br label %458

458:                                              ; preds = %456, %106
  %459 = phi ptr [ %107, %106 ], [ %457, %456 ]
  br label %460

460:                                              ; preds = %458, %96
  %461 = phi ptr [ %97, %96 ], [ %459, %458 ]
  br label %462

462:                                              ; preds = %460, %86
  %463 = phi ptr [ %87, %86 ], [ %461, %460 ]
  br label %472

464:                                              ; preds = %70
  %465 = load i64, ptr %6, align 8
  %466 = add i64 24, %465
  %467 = add i64 %466, 1
  %468 = add i64 %467, 8
  %469 = sub i64 %468, 1
  %470 = and i64 %469, -8
  %471 = call noalias ptr @_emalloc(i64 noundef %470) #9
  br label %472

472:                                              ; preds = %464, %462
  %473 = phi ptr [ %463, %462 ], [ %471, %464 ]
  br label %474

474:                                              ; preds = %472, %62
  %475 = phi ptr [ %69, %62 ], [ %473, %472 ]
  store ptr %475, ptr %8, align 8
  %476 = load ptr, ptr %8, align 8
  store ptr %476, ptr %4, align 8
  store i32 1, ptr %5, align 4
  %477 = load i32, ptr %5, align 4
  %478 = load ptr, ptr %4, align 8
  store i32 %477, ptr %478, align 4
  %479 = load i8, ptr %7, align 1
  %480 = trunc i8 %479 to i1
  %481 = select i1 %480, i32 128, i32 0
  %482 = or i32 22, %481
  %483 = load ptr, ptr %8, align 8
  %484 = getelementptr inbounds %struct._zend_refcounted_h, ptr %483, i32 0, i32 1
  store i32 %482, ptr %484, align 4
  %485 = load ptr, ptr %8, align 8
  %486 = getelementptr inbounds %struct._zend_string, ptr %485, i32 0, i32 1
  store i64 0, ptr %486, align 8
  %487 = load i64, ptr %6, align 8
  %488 = load ptr, ptr %8, align 8
  %489 = getelementptr inbounds %struct._zend_string, ptr %488, i32 0, i32 2
  store i64 %487, ptr %489, align 8
  %490 = load ptr, ptr %8, align 8
  store ptr %490, ptr %12, align 8
  %491 = load ptr, ptr %12, align 8
  %492 = getelementptr inbounds %struct._zend_string, ptr %491, i32 0, i32 3
  %493 = load ptr, ptr %9, align 8
  %494 = load i64, ptr %10, align 8
  call void @llvm.memcpy.p0.p0.i64(ptr align 8 %492, ptr align 1 %493, i64 %494, i1 false)
  %495 = load ptr, ptr %12, align 8
  %496 = getelementptr inbounds %struct._zend_string, ptr %495, i32 0, i32 3
  %497 = load i64, ptr %10, align 8
  %498 = getelementptr inbounds [1 x i8], ptr %496, i64 0, i64 %497
  store i8 0, ptr %498, align 1
  %499 = load ptr, ptr %12, align 8
  store ptr %499, ptr %23, align 8
  %500 = load ptr, ptr %23, align 8
  %501 = load ptr, ptr %22, align 8
  %502 = getelementptr inbounds %struct._zval_struct, ptr %501, i32 0, i32 0
  store ptr %500, ptr %502, align 8
  %503 = load ptr, ptr %22, align 8
  %504 = getelementptr inbounds %struct._zval_struct, ptr %503, i32 0, i32 1
  store i32 262, ptr %504, align 8
  br label %505

505:                                              ; preds = %474
  br label %506

506:                                              ; preds = %505
  br label %507

507:                                              ; preds = %506
  %508 = load ptr, ptr @xmlFree, align 8
  %509 = load ptr, ptr %18, align 8
  call void %508(ptr noundef %509)
  store i32 0, ptr %13, align 4
  br label %510

510:                                              ; preds = %507, %46, %28
  %511 = load i32, ptr %13, align 4
  ret i32 %511
}

; Function Attrs: nounwind uwtable
define hidden i32 @dom_element_id_read(ptr noundef %0, ptr noundef %1) #0 {
  %3 = alloca ptr, align 8
  %4 = alloca ptr, align 8
  store ptr %0, ptr %3, align 8
  store ptr %1, ptr %4, align 8
  %5 = load ptr, ptr %3, align 8
  %6 = load ptr, ptr %4, align 8
  %7 = call i32 @dom_element_reflected_attribute_read(ptr noundef %5, ptr noundef %6, ptr noundef @.str.3)
  ret i32 %7
}